; Function Attrs: nounwind uwtable
define noalias nonnull ptr @l_Lake_EStateT_bind(ptr noundef readnone captures(none) %0, ptr noundef readnone captures(none) %1, ptr noundef readnone captures(none) %2, ptr noundef readnone captures(none) %3, ptr noundef readnone captures(none) %4) local_unnamed_addr #0 {
  tail call void @lean_inc_heartbeat() #4
  %6 = tail call noalias ptr @mi_malloc_small(i64 noundef 24) #4
  %7 = icmp eq ptr %6, null
  br i1 %7, label %8, label %lean_alloc_closure.exit

8:                                                ; preds = %5
  tail call void @lean_internal_panic_out_of_memory() #5
  unreachable

lean_alloc_closure.exit:                          ; preds = %5
  %9 = getelementptr inbounds nuw i8, ptr %6, i64 4
  store i32 1, ptr %6, align 4, !tbaa !4
  store i32 -184549352, ptr %9, align 4
  %10 = getelementptr inbounds nuw i8, ptr %6, i64 8
  store ptr @l_Lake_EStateT_bind___rarg, ptr %10, align 8, !tbaa !9
  %11 = getelementptr inbounds nuw i8, ptr %6, i64 16
  store i16 4, ptr %11, align 8, !tbaa !11
  %12 = getelementptr inbounds nuw i8, ptr %6, i64 18
  store i16 0, ptr %12, align 2, !tbaa !11
  ret ptr %6
}